; Function Attrs: mustprogress nofree norecurse nosync nounwind willreturn memory(argmem: readwrite) uwtable
define dso_local void @_ZN4llvm21OpenMPIRBuilderConfig33setHasRequiresUnifiedSharedMemoryEb(ptr noundef nonnull align 8 captures(none) dereferenceable(168) %0, i1 noundef zeroext %1) local_unnamed_addr #5 align 2 {
  %3 = getelementptr inbounds nuw i8, ptr %0, i64 160
  %4 = load i64, ptr %3, align 8
  %5 = and i64 %4, 23
  %6 = or i64 %4, 8
  %.sink = select i1 %1, i64 %6, i64 %5
  store i64 %.sink, ptr %3, align 8
  ret void
}